
IMU_v_1.elf:     file format elf32-avr

Sections:
Idx Name          Size      VMA       LMA       File off  Algn
  0 .data         00000006  00800100  0000017c  00000210  2**0
                  CONTENTS, ALLOC, LOAD, DATA
  1 .text         0000017c  00000000  00000000  00000094  2**1
                  CONTENTS, ALLOC, LOAD, READONLY, CODE
  2 .bss          00000007  00800106  00800106  00000216  2**0
                  ALLOC
  3 .stab         00000738  00000000  00000000  00000218  2**2
                  CONTENTS, READONLY, DEBUGGING
  4 .stabstr      0000010b  00000000  00000000  00000950  2**0
                  CONTENTS, READONLY, DEBUGGING
  5 .comment      0000002f  00000000  00000000  00000a5b  2**0
                  CONTENTS, READONLY
  6 .debug_aranges 00000150  00000000  00000000  00000a8a  2**0
                  CONTENTS, READONLY, DEBUGGING
  7 .debug_info   00000ca1  00000000  00000000  00000bda  2**0
                  CONTENTS, READONLY, DEBUGGING
  8 .debug_abbrev 000006c4  00000000  00000000  0000187b  2**0
                  CONTENTS, READONLY, DEBUGGING
  9 .debug_line   00000bc8  00000000  00000000  00001f3f  2**0
                  CONTENTS, READONLY, DEBUGGING
 10 .debug_frame  0000025c  00000000  00000000  00002b08  2**2
                  CONTENTS, READONLY, DEBUGGING
 11 .debug_str    00000467  00000000  00000000  00002d64  2**0
                  CONTENTS, READONLY, DEBUGGING
 12 .debug_loc    00000984  00000000  00000000  000031cb  2**0
                  CONTENTS, READONLY, DEBUGGING
 13 .debug_ranges 000000d8  00000000  00000000  00003b4f  2**0
                  CONTENTS, READONLY, DEBUGGING

Disassembly of section .text:

00000000 <__vectors>:
   0:	49 c0       	rjmp	.+146    	; 0x94 <__ctors_end>
   2:	00 00       	nop
   4:	64 c0       	rjmp	.+200    	; 0xce <__bad_interrupt>
   6:	00 00       	nop
   8:	62 c0       	rjmp	.+196    	; 0xce <__bad_interrupt>
   a:	00 00       	nop
   c:	60 c0       	rjmp	.+192    	; 0xce <__bad_interrupt>
   e:	00 00       	nop
  10:	5e c0       	rjmp	.+188    	; 0xce <__bad_interrupt>
  12:	00 00       	nop
  14:	5c c0       	rjmp	.+184    	; 0xce <__bad_interrupt>
  16:	00 00       	nop
  18:	5a c0       	rjmp	.+180    	; 0xce <__bad_interrupt>
  1a:	00 00       	nop
  1c:	58 c0       	rjmp	.+176    	; 0xce <__bad_interrupt>
  1e:	00 00       	nop
  20:	56 c0       	rjmp	.+172    	; 0xce <__bad_interrupt>
  22:	00 00       	nop
  24:	54 c0       	rjmp	.+168    	; 0xce <__bad_interrupt>
  26:	00 00       	nop
  28:	52 c0       	rjmp	.+164    	; 0xce <__bad_interrupt>
  2a:	00 00       	nop
  2c:	50 c0       	rjmp	.+160    	; 0xce <__bad_interrupt>
  2e:	00 00       	nop
  30:	4e c0       	rjmp	.+156    	; 0xce <__bad_interrupt>
  32:	00 00       	nop
  34:	4c c0       	rjmp	.+152    	; 0xce <__bad_interrupt>
  36:	00 00       	nop
  38:	4a c0       	rjmp	.+148    	; 0xce <__bad_interrupt>
  3a:	00 00       	nop
  3c:	48 c0       	rjmp	.+144    	; 0xce <__bad_interrupt>
  3e:	00 00       	nop
  40:	46 c0       	rjmp	.+140    	; 0xce <__bad_interrupt>
  42:	00 00       	nop
  44:	44 c0       	rjmp	.+136    	; 0xce <__bad_interrupt>
  46:	00 00       	nop
  48:	42 c0       	rjmp	.+132    	; 0xce <__bad_interrupt>
  4a:	00 00       	nop
  4c:	40 c0       	rjmp	.+128    	; 0xce <__bad_interrupt>
  4e:	00 00       	nop
  50:	3e c0       	rjmp	.+124    	; 0xce <__bad_interrupt>
  52:	00 00       	nop
  54:	3c c0       	rjmp	.+120    	; 0xce <__bad_interrupt>
  56:	00 00       	nop
  58:	3a c0       	rjmp	.+116    	; 0xce <__bad_interrupt>
  5a:	00 00       	nop
  5c:	38 c0       	rjmp	.+112    	; 0xce <__bad_interrupt>
  5e:	00 00       	nop
  60:	36 c0       	rjmp	.+108    	; 0xce <__bad_interrupt>
  62:	00 00       	nop
  64:	34 c0       	rjmp	.+104    	; 0xce <__bad_interrupt>
  66:	00 00       	nop
  68:	32 c0       	rjmp	.+100    	; 0xce <__bad_interrupt>
  6a:	00 00       	nop
  6c:	30 c0       	rjmp	.+96     	; 0xce <__bad_interrupt>
  6e:	00 00       	nop
  70:	2e c0       	rjmp	.+92     	; 0xce <__bad_interrupt>
  72:	00 00       	nop
  74:	2c c0       	rjmp	.+88     	; 0xce <__bad_interrupt>
  76:	00 00       	nop
  78:	2a c0       	rjmp	.+84     	; 0xce <__bad_interrupt>
  7a:	00 00       	nop
  7c:	28 c0       	rjmp	.+80     	; 0xce <__bad_interrupt>
  7e:	00 00       	nop
  80:	26 c0       	rjmp	.+76     	; 0xce <__bad_interrupt>
  82:	00 00       	nop
  84:	24 c0       	rjmp	.+72     	; 0xce <__bad_interrupt>
  86:	00 00       	nop
  88:	22 c0       	rjmp	.+68     	; 0xce <__bad_interrupt>
  8a:	00 00       	nop
  8c:	20 c0       	rjmp	.+64     	; 0xce <__bad_interrupt>
  8e:	00 00       	nop
  90:	1e c0       	rjmp	.+60     	; 0xce <__bad_interrupt>
	...

00000094 <__ctors_end>:
  94:	11 24       	eor	r1, r1
  96:	1f be       	out	0x3f, r1	; 63
  98:	cf ef       	ldi	r28, 0xFF	; 255
  9a:	d0 e1       	ldi	r29, 0x10	; 16
  9c:	de bf       	out	0x3e, r29	; 62
  9e:	cd bf       	out	0x3d, r28	; 61

000000a0 <__do_clear_bss>:
  a0:	21 e0       	ldi	r18, 0x01	; 1
  a2:	a6 e0       	ldi	r26, 0x06	; 6
  a4:	b1 e0       	ldi	r27, 0x01	; 1
  a6:	01 c0       	rjmp	.+2      	; 0xaa <.do_clear_bss_start>

000000a8 <.do_clear_bss_loop>:
  a8:	1d 92       	st	X+, r1

000000aa <.do_clear_bss_start>:
  aa:	ad 30       	cpi	r26, 0x0D	; 13
  ac:	b2 07       	cpc	r27, r18
  ae:	e1 f7       	brne	.-8      	; 0xa8 <.do_clear_bss_loop>

000000b0 <__do_copy_data>:
  b0:	11 e0       	ldi	r17, 0x01	; 1
  b2:	a0 e0       	ldi	r26, 0x00	; 0
  b4:	b1 e0       	ldi	r27, 0x01	; 1
  b6:	ec e7       	ldi	r30, 0x7C	; 124
  b8:	f1 e0       	ldi	r31, 0x01	; 1
  ba:	00 e0       	ldi	r16, 0x00	; 0
  bc:	0b bf       	out	0x3b, r16	; 59
  be:	02 c0       	rjmp	.+4      	; 0xc4 <__do_copy_data+0x14>
  c0:	07 90       	elpm	r0, Z+
  c2:	0d 92       	st	X+, r0
  c4:	a6 30       	cpi	r26, 0x06	; 6
  c6:	b1 07       	cpc	r27, r17
  c8:	d9 f7       	brne	.-10     	; 0xc0 <__do_copy_data+0x10>
  ca:	19 d0       	rcall	.+50     	; 0xfe <main>
  cc:	55 c0       	rjmp	.+170    	; 0x178 <_exit>

000000ce <__bad_interrupt>:
  ce:	98 cf       	rjmp	.-208    	; 0x0 <__vectors>

000000d0 <read_adc>:
  d0:	ec e7       	ldi	r30, 0x7C	; 124
  d2:	f0 e0       	ldi	r31, 0x00	; 0
  d4:	90 81       	ld	r25, Z
  d6:	90 7f       	andi	r25, 0xF0	; 240
  d8:	90 83       	st	Z, r25
  da:	90 81       	ld	r25, Z
  dc:	89 2b       	or	r24, r25
  de:	80 83       	st	Z, r24
  e0:	ea e7       	ldi	r30, 0x7A	; 122
  e2:	f0 e0       	ldi	r31, 0x00	; 0
  e4:	80 81       	ld	r24, Z
  e6:	80 64       	ori	r24, 0x40	; 64
  e8:	80 83       	st	Z, r24
  ea:	80 81       	ld	r24, Z
  ec:	86 fd       	sbrc	r24, 6
  ee:	fd cf       	rjmp	.-6      	; 0xea <read_adc+0x1a>
  f0:	20 91 78 00 	lds	r18, 0x0078
  f4:	30 91 79 00 	lds	r19, 0x0079
  f8:	82 2f       	mov	r24, r18
  fa:	93 2f       	mov	r25, r19
  fc:	08 95       	ret

000000fe <main>:
  fe:	89 e1       	ldi	r24, 0x19	; 25
 100:	90 e0       	ldi	r25, 0x00	; 0
 102:	26 d0       	rcall	.+76     	; 0x150 <usart1_init>
 104:	10 92 06 01 	sts	0x0106, r1
 108:	80 e0       	ldi	r24, 0x00	; 0
 10a:	81 11       	cpse	r24, r1
 10c:	05 c0       	rjmp	.+10     	; 0x118 <main+0x1a>
 10e:	e0 df       	rcall	.-64     	; 0xd0 <read_adc>
 110:	90 93 0a 01 	sts	0x010A, r25
 114:	80 93 09 01 	sts	0x0109, r24
 118:	80 91 06 01 	lds	r24, 0x0106
 11c:	81 30       	cpi	r24, 0x01	; 1
 11e:	29 f4       	brne	.+10     	; 0x12a <main+0x2c>
 120:	d7 df       	rcall	.-82     	; 0xd0 <read_adc>
 122:	90 93 0c 01 	sts	0x010C, r25
 126:	80 93 0b 01 	sts	0x010B, r24
 12a:	80 91 06 01 	lds	r24, 0x0106
 12e:	82 30       	cpi	r24, 0x02	; 2
 130:	29 f4       	brne	.+10     	; 0x13c <main+0x3e>
 132:	ce df       	rcall	.-100    	; 0xd0 <read_adc>
 134:	90 93 08 01 	sts	0x0108, r25
 138:	80 93 07 01 	sts	0x0107, r24
 13c:	80 91 06 01 	lds	r24, 0x0106
 140:	8f 5f       	subi	r24, 0xFF	; 255
 142:	80 93 06 01 	sts	0x0106, r24
 146:	83 30       	cpi	r24, 0x03	; 3
 148:	00 f3       	brcs	.-64     	; 0x10a <main+0xc>
 14a:	81 e4       	ldi	r24, 0x41	; 65
 14c:	0c d0       	rcall	.+24     	; 0x166 <usart1_transmit>
 14e:	da cf       	rjmp	.-76     	; 0x104 <main+0x6>

00000150 <usart1_init>:
 150:	90 93 cd 00 	sts	0x00CD, r25
 154:	80 93 cc 00 	sts	0x00CC, r24
 158:	86 e0       	ldi	r24, 0x06	; 6
 15a:	80 93 ca 00 	sts	0x00CA, r24
 15e:	88 e9       	ldi	r24, 0x98	; 152
 160:	80 93 c9 00 	sts	0x00C9, r24
 164:	08 95       	ret

00000166 <usart1_transmit>:
 166:	e8 ec       	ldi	r30, 0xC8	; 200
 168:	f0 e0       	ldi	r31, 0x00	; 0
 16a:	90 81       	ld	r25, Z
 16c:	95 ff       	sbrs	r25, 5
 16e:	fd cf       	rjmp	.-6      	; 0x16a <usart1_transmit+0x4>
 170:	80 93 ce 00 	sts	0x00CE, r24
 174:	80 e0       	ldi	r24, 0x00	; 0
 176:	08 95       	ret

00000178 <_exit>:
 178:	f8 94       	cli

0000017a <__stop_program>:
 17a:	ff cf       	rjmp	.-2      	; 0x17a <__stop_program>
